target datalayout = "e-m:e-p270:32:32-p271:32:32-p272:64:64-i64:64-i128:128-f80:128-n8:16:32:64-S128"
target triple = "x86_64-pc-linux-gnu"

%struct.settings = type { i64, i32, i32, i32, ptr, i32, i32, i32, ptr, ptr, i32, double, i32, i32, i32, i8, i32, i32, i8, i32, i32, i32, i32, i32, i32, i8, i8, i8, i8, i8, i8, i8, i32, i32, double, double, i32, i32, i8, i32, i8, i8, ptr, i32, i32, i32, i32, double, double, i32, i8, i32, i32, i32, i32, i32, i8, i8, i8, ptr, i32, i32, i32, i32, i32, i32, i32, i32, i32, i32, double, i8, i32, i32, ptr, i32 }
%struct.slabclass_t = type { i32, i32, ptr, i32, i32, ptr, i32 }
%union.pthread_mutex_t = type { %struct.__pthread_mutex_s }
%struct.__pthread_mutex_s = type { i32, i32, i32, i32, i32, i16, i16, %struct.__pthread_internal_list }
%struct.__pthread_internal_list = type { ptr, ptr }

@settings = external global %struct.settings, align 8
@slabclass = internal global [64 x %struct.slabclass_t] zeroinitializer, align 16
@mem_limit = internal global i64 0, align 8
@mem_base = internal global ptr null, align 8
@mem_malloced = internal global i64 0, align 8
@mem_limit_reached = internal global i8 0, align 1
@slabs_lock = internal global %union.pthread_mutex_t zeroinitializer, align 8

; Function Attrs: nounwind uwtable
define internal ptr @get_page_from_global_pool() #0 {
  %1 = alloca ptr, align 8
  %2 = alloca ptr, align 8
  %3 = alloca i32, align 4
  %4 = alloca ptr, align 8
  call void @llvm.lifetime.start.p0(i64 8, ptr %2) #9
  store ptr @slabclass, ptr %2, align 8, !tbaa !25
  %5 = load ptr, ptr %2, align 8, !tbaa !25
  %6 = getelementptr inbounds nuw %struct.slabclass_t, ptr %5, i32 0, i32 4
  %7 = load i32, ptr %6, align 4, !tbaa !27
  %8 = icmp ult i32 %7, 1
  br i1 %8, label %9, label %10

9:                                                ; preds = %0
  store ptr null, ptr %1, align 8
  store i32 1, ptr %3, align 4
  br label %26

10:                                               ; preds = %0
  call void @llvm.lifetime.start.p0(i64 8, ptr %4) #9
  %11 = load ptr, ptr %2, align 8, !tbaa !25
  %12 = getelementptr inbounds nuw %struct.slabclass_t, ptr %11, i32 0, i32 5
  %13 = load ptr, ptr %12, align 8, !tbaa !26
  %14 = load ptr, ptr %2, align 8, !tbaa !25
  %15 = getelementptr inbounds nuw %struct.slabclass_t, ptr %14, i32 0, i32 4
  %16 = load i32, ptr %15, align 4, !tbaa !27
  %17 = sub i32 %16, 1
  %18 = zext i32 %17 to i64
  %19 = getelementptr inbounds nuw ptr, ptr %13, i64 %18
  %20 = load ptr, ptr %19, align 8, !tbaa !25
  store ptr %20, ptr %4, align 8, !tbaa !21
  %21 = load ptr, ptr %2, align 8, !tbaa !25
  %22 = getelementptr inbounds nuw %struct.slabclass_t, ptr %21, i32 0, i32 4
  %23 = load i32, ptr %22, align 4, !tbaa !27
  %24 = add i32 %23, -1
  store i32 %24, ptr %22, align 4, !tbaa !27
  %25 = load ptr, ptr %4, align 8, !tbaa !21
  store ptr %25, ptr %1, align 8
  store i32 1, ptr %3, align 4
  call void @llvm.lifetime.end.p0(i64 8, ptr %4) #9
  br label %26

26:                                               ; preds = %10, %9
  call void @llvm.lifetime.end.p0(i64 8, ptr %2) #9
  %27 = load ptr, ptr %1, align 8
  ret ptr %27
}

; Function Attrs: nounwind uwtable
define internal void @memory_release() #0 {
  %1 = alloca ptr, align 8
  %2 = alloca i32, align 4
  call void @llvm.lifetime.start.p0(i64 8, ptr %1) #9
  store ptr null, ptr %1, align 8, !tbaa !25
  %3 = load ptr, ptr @mem_base, align 8, !tbaa !25
  %4 = icmp ne ptr %3, null
  br i1 %4, label %5, label %6

5:                                                ; preds = %0
  store i32 1, ptr %2, align 4
  br label %27

6:                                                ; preds = %0
  %7 = load i8, ptr getelementptr inbounds nuw (%struct.settings, ptr @settings, i32 0, i32 30), align 1, !tbaa !71, !range !38, !noundef !39
  %8 = trunc i8 %7 to i1
  br i1 %8, label %10, label %9

9:                                                ; preds = %6
  store i32 1, ptr %2, align 4
  br label %27

10:                                               ; preds = %6
  br label %11

11:                                               ; preds = %20, %10
  %12 = load i64, ptr @mem_malloced, align 8, !tbaa !4
  %13 = load i64, ptr @mem_limit, align 8, !tbaa !4
  %14 = icmp ugt i64 %12, %13
  br i1 %14, label %15, label %18

15:                                               ; preds = %11
  %16 = call ptr @get_page_from_global_pool()
  store ptr %16, ptr %1, align 8, !tbaa !25
  %17 = icmp ne ptr %16, null
  br label %18

18:                                               ; preds = %15, %11
  %19 = phi i1 [ false, %11 ], [ %17, %15 ]
  br i1 %19, label %20, label %26

20:                                               ; preds = %18
  %21 = load ptr, ptr %1, align 8, !tbaa !25
  call void @free(ptr noundef %21) #9
  %22 = load i32, ptr getelementptr inbounds nuw (%struct.settings, ptr @settings, i32 0, i32 23), align 4, !tbaa !43
  %23 = sext i32 %22 to i64
  %24 = load i64, ptr @mem_malloced, align 8, !tbaa !4
  %25 = sub i64 %24, %23
  store i64 %25, ptr @mem_malloced, align 8, !tbaa !4
  br label %11, !llvm.loop !72

26:                                               ; preds = %18
  store i32 0, ptr %2, align 4
  br label %27

27:                                               ; preds = %26, %9, %5
  call void @llvm.lifetime.end.p0(i64 8, ptr %1) #9
  %28 = load i32, ptr %2, align 4
  switch i32 %28, label %30 [
    i32 0, label %29
    i32 1, label %29
  ]

29:                                               ; preds = %27, %27
  ret void

30:                                               ; preds = %27
  unreachable
}

; Function Attrs: nounwind uwtable
define internal zeroext i1 @do_slabs_adjust_mem_limit(i64 noundef %0) #0 {
  %2 = alloca i1, align 1
  %3 = alloca i64, align 8
  store i64 %0, ptr %3, align 8, !tbaa !4
  %4 = load ptr, ptr @mem_base, align 8, !tbaa !25
  %5 = icmp ne ptr %4, null
  br i1 %5, label %6, label %7

6:                                                ; preds = %1
  store i1 false, ptr %2, align 1
  br label %10

7:                                                ; preds = %1
  %8 = load i64, ptr %3, align 8, !tbaa !4
  store i64 %8, ptr @settings, align 8, !tbaa !68
  %9 = load i64, ptr %3, align 8, !tbaa !4
  store i64 %9, ptr @mem_limit, align 8, !tbaa !4
  store i8 0, ptr @mem_limit_reached, align 1, !tbaa !34
  call void @memory_release()
  store i1 true, ptr %2, align 1
  br label %10

10:                                               ; preds = %7, %6
  %11 = load i1, ptr %2, align 1
  ret i1 %11
}

; Function Attrs: nounwind uwtable
define dso_local zeroext i1 @slabs_adjust_mem_limit(i64 noundef %0) #0 {
  %2 = alloca i64, align 8
  %3 = alloca i8, align 1
  store i64 %0, ptr %2, align 8, !tbaa !4
  call void @llvm.lifetime.start.p0(i64 1, ptr %3) #9
  %4 = call i32 @pthread_mutex_lock(ptr noundef @slabs_lock) #9
  %5 = load i64, ptr %2, align 8, !tbaa !4
  %6 = call zeroext i1 @do_slabs_adjust_mem_limit(i64 noundef %5)
  %7 = zext i1 %6 to i8
  store i8 %7, ptr %3, align 1, !tbaa !34
  %8 = call i32 @pthread_mutex_unlock(ptr noundef @slabs_lock) #9
  %9 = load i8, ptr %3, align 1, !tbaa !34, !range !38, !noundef !39
  %10 = trunc i8 %9 to i1
  call void @llvm.lifetime.end.p0(i64 1, ptr %3) #9
  ret i1 %10
}