; Function Attrs: nounwind uwtable
define dso_local noundef zeroext i1 @slabs_adjust_mem_limit(i64 noundef %0) local_unnamed_addr #4 {
  %2 = tail call i32 @pthread_mutex_lock(ptr noundef nonnull @slabs_lock) #21
  %3 = load ptr, ptr @mem_base, align 8, !tbaa !16
  %.not.i = icmp eq ptr %3, null
  br i1 %.not.i, label %4, label %do_slabs_adjust_mem_limit.exit

4:                                                ; preds = %1
  store i64 %0, ptr @settings, align 8, !tbaa !62
  store i64 %0, ptr @mem_limit, align 8, !tbaa !31
  %5 = load i8, ptr getelementptr inbounds nuw (i8, ptr @settings, i64 137), align 1, !tbaa !63, !range !64, !noundef !65
  %6 = trunc nuw i8 %5 to i1
  br i1 %6, label %.preheader.i.i, label %do_slabs_adjust_mem_limit.exit

.preheader.i.i:                                   ; preds = %4
  %mem_malloced.promoted.i.i = load i64, ptr @mem_malloced, align 8, !tbaa !31
  %7 = icmp ugt i64 %mem_malloced.promoted.i.i, %0
  br i1 %7, label %.lr.ph.i.i, label %do_slabs_adjust_mem_limit.exit

.lr.ph.i.i:                                       ; preds = %.preheader.i.i
  %.promoted.i.i = load i32, ptr getelementptr inbounds nuw (i8, ptr @slabclass, i64 20), align 4
  %8 = load ptr, ptr getelementptr inbounds nuw (i8, ptr @slabclass, i64 24), align 8
  %9 = zext i32 %.promoted.i.i to i64
  br label %10

10:                                               ; preds = %16, %.lr.ph.i.i
  %indvars.iv.i.i = phi i64 [ %9, %.lr.ph.i.i ], [ %indvars.iv.next.i.i, %16 ]
  %11 = phi i64 [ %mem_malloced.promoted.i.i, %.lr.ph.i.i ], [ %19, %16 ]
  %12 = icmp eq i64 %indvars.iv.i.i, 0
  br i1 %12, label %do_slabs_adjust_mem_limit.exit, label %get_page_from_global_pool.exit.i.i

get_page_from_global_pool.exit.i.i:               ; preds = %10
  %indvars.iv.next.i.i = add nsw i64 %indvars.iv.i.i, -1
  %indvars.i.i = trunc i64 %indvars.iv.next.i.i to i32
  %13 = and i64 %indvars.iv.next.i.i, 4294967295
  %14 = getelementptr inbounds nuw ptr, ptr %8, i64 %13
  %15 = load ptr, ptr %14, align 8, !tbaa !16
  store i32 %indvars.i.i, ptr getelementptr inbounds nuw (i8, ptr @slabclass, i64 20), align 4, !tbaa !13
  %.not1.i.i = icmp eq ptr %15, null
  br i1 %.not1.i.i, label %do_slabs_adjust_mem_limit.exit, label %16

16:                                               ; preds = %get_page_from_global_pool.exit.i.i
  tail call void @free(ptr noundef nonnull %15) #21
  %17 = load i32, ptr getelementptr inbounds nuw (i8, ptr @settings, i64 124), align 4, !tbaa !37
  %18 = sext i32 %17 to i64
  %19 = sub i64 %11, %18
  store i64 %19, ptr @mem_malloced, align 8, !tbaa !31
  %20 = icmp ugt i64 %19, %0
  br i1 %20, label %10, label %do_slabs_adjust_mem_limit.exit, !llvm.loop !66

do_slabs_adjust_mem_limit.exit:                   ; preds = %10, %get_page_from_global_pool.exit.i.i, %16, %1, %4, %.preheader.i.i
  %21 = tail call i32 @pthread_mutex_unlock(ptr noundef nonnull @slabs_lock) #21
  ret i1 %.not.i
}